target datalayout = "e-m:e-p270:32:32-p271:32:32-p272:64:64-i64:64-i128:128-f80:128-n8:16:32:64-S128"
target triple = "x86_64-pc-linux-gnu"

%struct._zend_array = type { %struct._zend_refcounted_h, %union.anon.4, i32, %union.anon.6, i32, i32, i32, i32, i64, ptr }
%struct._zend_refcounted_h = type { i32, %union.anon.3 }
%union.anon.3 = type { i32 }
%union.anon.4 = type { i32 }
%union.anon.6 = type { ptr }
%struct._zval_struct = type { %union._zend_value, %union.anon, %union.anon.2 }
%union._zend_value = type { i64 }
%union.anon = type { i32 }
%union.anon.2 = type { i32 }
%struct._phar_entry_info = type { i32, i32, i32, i32, i32, i32, %struct._phar_metadata_tracker, i32, ptr, i32, i64, i64, i64, ptr, ptr, i32, ptr, ptr, ptr, i8, i32, i16, i16 }
%struct._phar_metadata_tracker = type { %struct._zval_struct, ptr }
%struct._phar_archive_data = type { ptr, i32, ptr, i32, ptr, i32, [12 x i8], i64, i64, %struct._zend_array, %struct._zend_array, %struct._zend_array, i32, i32, i32, ptr, ptr, i32, i32, i32, ptr, %struct._phar_metadata_tracker, i32, i16 }

@.str.13 = private unnamed_addr constant [44 x i8] c"phar error: unable to create temporary file\00", align 1
@.str.20 = private unnamed_addr constant [91 x i8] c"phar error: cannot separate entry file \22%s\22 contents in phar archive \22%s\22 for write access\00", align 1

; Function Attrs: nounwind uwtable
define hidden i32 @phar_separate_entry_fp(ptr noundef %0, ptr noundef %1) #0 {
  %3 = alloca i32, align 4
  %4 = alloca ptr, align 8
  %5 = alloca ptr, align 8
  %6 = alloca ptr, align 8
  %7 = alloca ptr, align 8
  store ptr %0, ptr %4, align 8
  store ptr %1, ptr %5, align 8
  %8 = load ptr, ptr %4, align 8
  %9 = load ptr, ptr %5, align 8
  %10 = call i32 @phar_open_entry_fp(ptr noundef %8, ptr noundef %9, i32 noundef 1)
  %11 = icmp eq i32 -1, %10
  br i1 %11, label %12, label %13

12:                                               ; preds = %2
  store i32 -1, ptr %3, align 4
  br label %95

13:                                               ; preds = %2
  %14 = load ptr, ptr %4, align 8
  %15 = getelementptr inbounds %struct._phar_entry_info, ptr %14, i32 0, i32 9
  %16 = load i32, ptr %15, align 8
  %17 = icmp eq i32 %16, 2
  br i1 %17, label %18, label %19

18:                                               ; preds = %13
  store i32 0, ptr %3, align 4
  br label %95

19:                                               ; preds = %13
  %20 = call ptr @_php_stream_fopen_tmpfile(i32 noundef 0)
  store ptr %20, ptr %6, align 8
  %21 = load ptr, ptr %6, align 8
  %22 = icmp eq ptr %21, null
  br i1 %22, label %23, label %26

23:                                               ; preds = %19
  %24 = load ptr, ptr %5, align 8
  %25 = call i64 (ptr, i64, ptr, ...) @zend_spprintf(ptr noundef %24, i64 noundef 0, ptr noundef @.str.13)
  store i32 -1, ptr %3, align 4
  br label %95

26:                                               ; preds = %19
  %27 = load ptr, ptr %4, align 8
  %28 = call i32 @phar_seek_efp(ptr noundef %27, i64 noundef 0, i32 noundef 0, i64 noundef 0, i32 noundef 1)
  %29 = load ptr, ptr %4, align 8
  %30 = call ptr @phar_get_link_source(ptr noundef %29)
  store ptr %30, ptr %7, align 8
  %31 = load ptr, ptr %7, align 8
  %32 = icmp ne ptr %31, null
  br i1 %32, label %35, label %33

33:                                               ; preds = %26
  %34 = load ptr, ptr %4, align 8
  store ptr %34, ptr %7, align 8
  br label %35

35:                                               ; preds = %33, %26
  %36 = load ptr, ptr %7, align 8
  %37 = call ptr @phar_get_efp(ptr noundef %36, i32 noundef 0)
  %38 = load ptr, ptr %6, align 8
  %39 = load ptr, ptr %7, align 8
  %40 = getelementptr inbounds %struct._phar_entry_info, ptr %39, i32 0, i32 0
  %41 = load i32, ptr %40, align 8
  %42 = zext i32 %41 to i64
  %43 = call i32 @_php_stream_copy_to_stream_ex(ptr noundef %37, ptr noundef %38, i64 noundef %42, ptr noundef null)
  %44 = icmp ne i32 0, %43
  br i1 %44, label %45, label %60

45:                                               ; preds = %35
  %46 = load ptr, ptr %5, align 8
  %47 = icmp ne ptr %46, null
  br i1 %47, label %48, label %59

48:                                               ; preds = %45
  %49 = load ptr, ptr %5, align 8
  %50 = load ptr, ptr %4, align 8
  %51 = getelementptr inbounds %struct._phar_entry_info, ptr %50, i32 0, i32 8
  %52 = load ptr, ptr %51, align 8
  %53 = load ptr, ptr %4, align 8
  %54 = getelementptr inbounds %struct._phar_entry_info, ptr %53, i32 0, i32 17
  %55 = load ptr, ptr %54, align 8
  %56 = getelementptr inbounds %struct._phar_archive_data, ptr %55, i32 0, i32 0
  %57 = load ptr, ptr %56, align 8
  %58 = call i64 (ptr, i64, ptr, ...) @zend_spprintf(ptr noundef %49, i64 noundef 4096, ptr noundef @.str.20, ptr noundef %52, ptr noundef %57)
  br label %59

59:                                               ; preds = %48, %45
  store i32 -1, ptr %3, align 4
  br label %95

60:                                               ; preds = %35
  %61 = load ptr, ptr %4, align 8
  %62 = getelementptr inbounds %struct._phar_entry_info, ptr %61, i32 0, i32 18
  %63 = load ptr, ptr %62, align 8
  %64 = icmp ne ptr %63, null
  br i1 %64, label %65, label %82

65:                                               ; preds = %60
  %66 = load ptr, ptr %4, align 8
  %67 = getelementptr inbounds %struct._phar_entry_info, ptr %66, i32 0, i32 18
  %68 = load ptr, ptr %67, align 8
  call void @_efree(ptr noundef %68)
  %69 = load ptr, ptr %4, align 8
  %70 = getelementptr inbounds %struct._phar_entry_info, ptr %69, i32 0, i32 18
  store ptr null, ptr %70, align 8
  %71 = load ptr, ptr %4, align 8
  %72 = getelementptr inbounds %struct._phar_entry_info, ptr %71, i32 0, i32 22
  %73 = load i16, ptr %72, align 2
  %74 = lshr i16 %73, 6
  %75 = and i16 %74, 1
  %76 = zext i16 %75 to i32
  %77 = icmp ne i32 %76, 0
  %78 = select i1 %77, i32 48, i32 0
  %79 = trunc i32 %78 to i8
  %80 = load ptr, ptr %4, align 8
  %81 = getelementptr inbounds %struct._phar_entry_info, ptr %80, i32 0, i32 19
  store i8 %79, ptr %81, align 8
  br label %82

82:                                               ; preds = %65, %60
  %83 = load ptr, ptr %4, align 8
  %84 = getelementptr inbounds %struct._phar_entry_info, ptr %83, i32 0, i32 11
  store i64 0, ptr %84, align 8
  %85 = load ptr, ptr %6, align 8
  %86 = load ptr, ptr %4, align 8
  %87 = getelementptr inbounds %struct._phar_entry_info, ptr %86, i32 0, i32 13
  store ptr %85, ptr %87, align 8
  %88 = load ptr, ptr %4, align 8
  %89 = getelementptr inbounds %struct._phar_entry_info, ptr %88, i32 0, i32 9
  store i32 2, ptr %89, align 8
  %90 = load ptr, ptr %4, align 8
  %91 = getelementptr inbounds %struct._phar_entry_info, ptr %90, i32 0, i32 22
  %92 = load i16, ptr %91, align 2
  %93 = and i16 %92, -3
  %94 = or i16 %93, 2
  store i16 %94, ptr %91, align 2
  store i32 0, ptr %3, align 4
  br label %95

95:                                               ; preds = %82, %59, %23, %18, %12
  %96 = load i32, ptr %3, align 4
  ret i32 %96
}