; Function Attrs: nounwind uwtable
define hidden noundef i32 @phar_separate_entry_fp(ptr noundef %0, ptr noundef %1) local_unnamed_addr #0 {
  %3 = tail call i32 @phar_open_entry_fp(ptr noundef %0, ptr noundef %1, i32 noundef 1), !range !5
  %4 = icmp eq i32 %3, -1
  br i1 %4, label %44, label %5

5:                                                ; preds = %2
  %6 = getelementptr inbounds i8, ptr %0, i64 64
  %7 = load i32, ptr %6, align 8
  %8 = icmp eq i32 %7, 2
  br i1 %8, label %44, label %9

9:                                                ; preds = %5
  %10 = tail call ptr @_php_stream_fopen_tmpfile(i32 noundef 0) #15
  %11 = icmp eq ptr %10, null
  br i1 %11, label %12, label %14

12:                                               ; preds = %9
  %13 = tail call i64 (ptr, i64, ptr, ...) @zend_spprintf(ptr noundef %1, i64 noundef 0, ptr noundef nonnull @.str.13) #15
  br label %44

14:                                               ; preds = %9
  %15 = tail call i32 @phar_seek_efp(ptr noundef nonnull %0, i64 noundef 0, i32 noundef 0, i64 noundef 0, i32 noundef 1)
  %16 = tail call ptr @phar_get_link_source(ptr noundef nonnull %0)
  %.not = icmp eq ptr %16, null
  %spec.select = select i1 %.not, ptr %0, ptr %16
  %17 = tail call ptr @phar_get_efp(ptr noundef %spec.select, i32 noundef 0)
  %18 = load i32, ptr %spec.select, align 8
  %19 = zext i32 %18 to i64
  %20 = tail call i32 @_php_stream_copy_to_stream_ex(ptr noundef %17, ptr noundef nonnull %10, i64 noundef %19, ptr noundef null) #15
  %.not31 = icmp eq i32 %20, 0
  br i1 %.not31, label %29, label %21

21:                                               ; preds = %14
  %.not34 = icmp eq ptr %1, null
  br i1 %.not34, label %44, label %22

22:                                               ; preds = %21
  %23 = getelementptr inbounds i8, ptr %0, i64 56
  %24 = load ptr, ptr %23, align 8
  %25 = getelementptr inbounds i8, ptr %0, i64 128
  %26 = load ptr, ptr %25, align 8
  %27 = load ptr, ptr %26, align 8
  %28 = tail call i64 (ptr, i64, ptr, ...) @zend_spprintf(ptr noundef nonnull %1, i64 noundef 4096, ptr noundef nonnull @.str.20, ptr noundef %24, ptr noundef %27) #15
  br label %44

29:                                               ; preds = %14
  %30 = getelementptr inbounds i8, ptr %0, i64 136
  %31 = load ptr, ptr %30, align 8
  %.not32 = icmp eq ptr %31, null
  br i1 %.not32, label %._crit_edge, label %32

._crit_edge:                                      ; preds = %29
  %.phi.trans.insert = getelementptr inbounds i8, ptr %0, i64 154
  %.pre = load i16, ptr %.phi.trans.insert, align 2
  br label %38

32:                                               ; preds = %29
  tail call void @_efree(ptr noundef nonnull %31) #15
  store ptr null, ptr %30, align 8
  %33 = getelementptr inbounds i8, ptr %0, i64 154
  %34 = load i16, ptr %33, align 2
  %35 = and i16 %34, 64
  %.not33 = icmp eq i16 %35, 0
  %36 = select i1 %.not33, i8 0, i8 48
  %37 = getelementptr inbounds i8, ptr %0, i64 144
  store i8 %36, ptr %37, align 8
  br label %38

38:                                               ; preds = %._crit_edge, %32
  %39 = phi i16 [ %.pre, %._crit_edge ], [ %34, %32 ]
  %40 = getelementptr inbounds i8, ptr %0, i64 80
  store i64 0, ptr %40, align 8
  %41 = getelementptr inbounds i8, ptr %0, i64 96
  store ptr %10, ptr %41, align 8
  store i32 2, ptr %6, align 8
  %42 = getelementptr inbounds i8, ptr %0, i64 154
  %43 = or i16 %39, 2
  store i16 %43, ptr %42, align 2
  br label %44

44:                                               ; preds = %21, %22, %5, %2, %38, %12
  %.026 = phi i32 [ -1, %12 ], [ 0, %38 ], [ -1, %2 ], [ 0, %5 ], [ -1, %22 ], [ -1, %21 ]
  ret i32 %.026
}